; Function Attrs: nounwind uwtable
define void @Bmc_MnaSelect_rec(ptr noundef readonly captures(none) %0, ptr noundef captures(none) %1, ptr noundef captures(none) %2) local_unnamed_addr #0 {
  br label %tailrecurse

tailrecurse:                                      ; preds = %17, %3
  %.tr26 = phi ptr [ %1, %3 ], [ %22, %17 ]
  %4 = load i64, ptr %.tr26, align 4
  %.not = icmp sgt i64 %4, -1
  br i1 %.not, label %Gia_ObjIsRo.exit.thread, label %5

5:                                                ; preds = %tailrecurse
  %6 = and i64 %4, 9223372036854775807
  store i64 %6, ptr %.tr26, align 4
  %7 = and i64 %4, 2147483648
  %.not.i = icmp ne i64 %7, 0
  %8 = and i64 %4, 536870911
  %9 = icmp eq i64 %8, 536870911
  %narrow.i.not = or i1 %.not.i, %9
  br i1 %narrow.i.not, label %26, label %10

10:                                               ; preds = %5
  %11 = sub nsw i64 0, %8
  %12 = getelementptr inbounds %struct.Gia_Obj_t_, ptr %.tr26, i64 %11
  %13 = getelementptr inbounds nuw i8, ptr %12, i64 8
  %14 = load i32, ptr %13, align 4, !tbaa !33
  %15 = icmp eq i32 %14, 3
  br i1 %15, label %16, label %17

16:                                               ; preds = %10
  tail call void @Bmc_MnaSelect_rec(ptr noundef %0, ptr noundef nonnull %12, ptr noundef %2)
  %.pre = load i64, ptr %.tr26, align 4
  br label %17

17:                                               ; preds = %10, %16
  %18 = phi i64 [ %6, %10 ], [ %.pre, %16 ]
  %19 = lshr i64 %18, 32
  %20 = and i64 %19, 536870911
  %21 = sub nsw i64 0, %20
  %22 = getelementptr inbounds %struct.Gia_Obj_t_, ptr %.tr26, i64 %21
  %23 = getelementptr inbounds nuw i8, ptr %22, i64 8
  %24 = load i32, ptr %23, align 4, !tbaa !33
  %25 = icmp eq i32 %24, 3
  br i1 %25, label %tailrecurse, label %Gia_ObjIsRo.exit.thread

26:                                               ; preds = %5
  %27 = and i64 %4, 2684354559
  %narrow.i.not.i = icmp eq i64 %27, 2684354559
  br i1 %narrow.i.not.i, label %Gia_ObjIsRo.exit, label %Gia_ObjIsRo.exit.thread

Gia_ObjIsRo.exit:                                 ; preds = %26
  %28 = lshr i64 %4, 32
  %29 = trunc nuw i64 %28 to i32
  %30 = and i32 %29, 536870911
  %31 = getelementptr i8, ptr %0, i64 16
  %.val.i = load i32, ptr %31, align 8, !tbaa !35
  %32 = getelementptr i8, ptr %0, i64 64
  %.val3.i = load ptr, ptr %32, align 8, !tbaa !36
  %33 = getelementptr i8, ptr %.val3.i, i64 4
  %.val3.val.i = load i32, ptr %33, align 4, !tbaa !28
  %34 = sub nsw i32 %.val3.val.i, %.val.i
  %.not25 = icmp slt i32 %30, %34
  br i1 %.not25, label %Gia_ObjIsRo.exit.thread, label %35

35:                                               ; preds = %Gia_ObjIsRo.exit
  %36 = getelementptr i8, ptr %0, i64 72
  %.val.i22 = load ptr, ptr %36, align 8, !tbaa !3
  %37 = getelementptr i8, ptr %.val.i22, i64 4
  %.val.val.i = load i32, ptr %37, align 4, !tbaa !28
  %38 = add i32 %.val.val.i, %30
  %39 = sub i32 %38, %.val3.val.i
  %40 = getelementptr i8, ptr %.val.i22, i64 8
  %.val5.val.i = load ptr, ptr %40, align 8, !tbaa !37
  %41 = sext i32 %39 to i64
  %42 = getelementptr inbounds i32, ptr %.val5.val.i, i64 %41
  %43 = load i32, ptr %42, align 4, !tbaa !38
  %44 = getelementptr inbounds nuw i8, ptr %2, i64 4
  %45 = load i32, ptr %44, align 4, !tbaa !28
  %46 = load i32, ptr %2, align 8, !tbaa !52
  %47 = icmp eq i32 %45, %46
  br i1 %47, label %48, label %.Vec_IntGrow.exit10_crit_edge.i

.Vec_IntGrow.exit10_crit_edge.i:                  ; preds = %35
  %.phi.trans.insert.i = getelementptr inbounds nuw i8, ptr %2, i64 8
  %.pre.i = load ptr, ptr %.phi.trans.insert.i, align 8, !tbaa !37
  br label %Vec_IntPush.exit

48:                                               ; preds = %35
  %49 = icmp slt i32 %45, 16
  br i1 %49, label %50, label %58

50:                                               ; preds = %48
  %51 = getelementptr inbounds nuw i8, ptr %2, i64 8
  %52 = load ptr, ptr %51, align 8, !tbaa !37
  %.not9.i.i = icmp eq ptr %52, null
  br i1 %.not9.i.i, label %55, label %53

53:                                               ; preds = %50
  %54 = tail call dereferenceable_or_null(64) ptr @realloc(ptr noundef nonnull %52, i64 noundef 64) #21
  br label %Vec_IntGrow.exit.i

55:                                               ; preds = %50
  %56 = tail call noalias dereferenceable_or_null(64) ptr @malloc(i64 noundef 64) #20
  br label %Vec_IntGrow.exit.i

Vec_IntGrow.exit.i:                               ; preds = %55, %53
  %57 = phi ptr [ %54, %53 ], [ %56, %55 ]
  store ptr %57, ptr %51, align 8, !tbaa !37
  store i32 16, ptr %2, align 8, !tbaa !52
  br label %Vec_IntPush.exit

58:                                               ; preds = %48
  %59 = shl nuw nsw i32 %45, 1
  %60 = getelementptr inbounds nuw i8, ptr %2, i64 8
  %61 = load ptr, ptr %60, align 8, !tbaa !37
  %.not9.i9.i = icmp eq ptr %61, null
  %62 = zext nneg i32 %59 to i64
  %63 = shl nuw nsw i64 %62, 2
  br i1 %.not9.i9.i, label %66, label %64

64:                                               ; preds = %58
  %65 = tail call ptr @realloc(ptr noundef nonnull %61, i64 noundef %63) #21
  br label %68

66:                                               ; preds = %58
  %67 = tail call noalias ptr @malloc(i64 noundef %63) #20
  br label %68

68:                                               ; preds = %66, %64
  %69 = phi ptr [ %65, %64 ], [ %67, %66 ]
  store ptr %69, ptr %60, align 8, !tbaa !37
  store i32 %59, ptr %2, align 8, !tbaa !52
  br label %Vec_IntPush.exit

Vec_IntPush.exit:                                 ; preds = %.Vec_IntGrow.exit10_crit_edge.i, %Vec_IntGrow.exit.i, %68
  %70 = phi ptr [ %.pre.i, %.Vec_IntGrow.exit10_crit_edge.i ], [ %69, %68 ], [ %57, %Vec_IntGrow.exit.i ]
  %71 = load i32, ptr %44, align 4, !tbaa !28
  %72 = add nsw i32 %71, 1
  store i32 %72, ptr %44, align 4, !tbaa !28
  %73 = sext i32 %71 to i64
  %74 = getelementptr inbounds i32, ptr %70, i64 %73
  store i32 %43, ptr %74, align 4, !tbaa !38
  br label %Gia_ObjIsRo.exit.thread

Gia_ObjIsRo.exit.thread:                          ; preds = %17, %tailrecurse, %26, %Gia_ObjIsRo.exit, %Vec_IntPush.exit
  ret void
}